Certificate:
    Data:
        Version: 3 (0x2)
        Serial Number: 4096 (0x1000)
    Signature Algorithm: md5WithRSAEncryption
        Issuer: C=US, ST=Utah, L=Salt Lake City, O=University of Utah, OU=Computer Science, CN=Certificate Authority/emailAddress=matthew.westover@gmail.com
        Validity
            Not Before: Mar 17 22:25:42 2020 GMT
            Not After : Mar 17 22:25:42 2021 GMT
        Subject: C=US, ST=Utah, O=University of Utah, OU=Computer Science, CN=server/emailAddress=matthew.westover@gmail.com
        Subject Public Key Info:
            Public Key Algorithm: rsaEncryption
                Public-Key: (4096 bit)
                Modulus:
                    00:e0:11:19:4a:cc:5f:fd:3a:0a:db:ee:0d:90:30:
                    4f:22:4e:38:24:61:49:91:ed:38:85:72:6f:c1:ca:
                    a2:20:be:3f:be:af:fe:d2:c1:19:b7:62:e2:f2:60:
                    19:20:aa:8d:1e:82:35:e2:0f:36:f9:da:89:c4:22:
                    88:dc:ff:d9:cb:97:bd:85:d6:96:32:42:06:38:62:
                    c5:1c:11:6c:0b:ba:4e:f3:2d:4d:05:69:01:ff:96:
                    39:64:de:e5:2c:cf:d2:27:2e:16:df:c7:32:e6:60:
                    b0:76:12:f7:85:8c:dd:b8:90:d1:04:a9:b2:5b:f8:
                    95:aa:29:2e:96:9b:06:67:c0:35:7e:ca:80:77:64:
                    44:36:a6:ad:75:6f:2b:7e:5c:16:72:07:1b:78:7e:
                    89:36:04:52:a5:35:74:66:ad:22:1b:9e:33:03:32:
                    b3:51:5f:68:42:86:fa:65:df:a1:f0:27:f1:5f:f7:
                    04:da:52:7d:db:47:4e:8f:32:f2:e0:e3:f3:24:59:
                    0b:07:1d:06:bb:27:14:d7:7f:d8:c7:b1:9b:02:5a:
                    26:80:62:58:d4:d2:54:a7:e4:9c:8e:41:f4:8b:21:
                    5a:3c:a7:d3:18:41:75:c8:9c:57:ef:32:ca:08:83:
                    21:22:e4:b1:5b:84:ea:1d:38:94:cf:e1:38:b6:34:
                    51:ca:2a:5d:63:5c:34:cf:50:6e:15:e5:fd:26:0f:
                    7d:f4:a8:8f:12:25:2f:63:79:d6:04:5b:77:69:1d:
                    b2:7b:39:30:ff:dd:6e:c3:a0:0d:79:43:73:1f:c2:
                    14:54:68:bc:5e:0e:15:22:f7:2d:91:21:67:29:39:
                    f3:8d:0a:fe:bc:9f:70:7d:92:cf:35:58:b1:61:2a:
                    0c:e6:08:77:c2:7d:1d:7e:7d:10:66:99:cd:f2:2f:
                    4e:6c:83:24:79:5f:b6:5d:4d:98:75:4b:5a:40:d2:
                    c9:3c:42:13:ae:36:51:6c:c3:f5:42:d5:10:fe:ad:
                    e1:13:67:85:bc:fe:50:db:22:3a:88:d4:e0:ff:83:
                    2f:1e:ac:2f:f9:b9:97:9a:71:3c:bb:79:37:58:d0:
                    3e:a5:e4:5c:ff:43:2c:3b:64:c9:0b:28:6c:63:a0:
                    d9:47:9e:ca:83:a6:23:31:55:7b:c0:ec:84:b7:b9:
                    f6:0d:96:8a:65:7c:19:04:9d:c2:c8:e8:20:62:ec:
                    a4:31:8e:26:f5:f6:1d:c5:27:7d:e4:e1:cd:54:63:
                    ab:4d:39:83:ec:03:66:c9:6e:f9:ae:c4:de:05:f1:
                    b2:bb:36:63:fc:0f:8a:aa:88:4b:9b:31:92:86:b1:
                    56:ae:fd:dd:79:a0:4b:d6:f6:e4:8d:6b:2d:16:f0:
                    2f:72:1d
                Exponent: 65537 (0x10001)
        X509v3 extensions:
            X509v3 Basic Constraints: 
                CA:FALSE
            Netscape Comment: 
                OpenSSL Generated Certificate
            X509v3 Subject Key Identifier: 
                C1:FD:5F:3A:89:7F:03:6B:D7:68:F9:51:B9:0F:6C:71:B5:80:79:01
            X509v3 Authority Key Identifier: 
                DirName:/C=US/ST=Utah/L=Salt Lake City/O=University of Utah/OU=Computer Science/CN=Certificate Authority/emailAddress=matthew.westover@gmail.com
                serial:8F:67:F4:66:AB:07:6F:6A

    Signature Algorithm: md5WithRSAEncryption
         3f:64:ac:22:a4:9c:4f:9c:3e:94:cb:b1:5e:f9:eb:ac:74:06:
         35:af:a1:f7:0f:11:e7:9e:20:79:38:09:bc:5a:43:4f:94:66:
         4a:c9:ce:3f:f4:7e:54:24:fc:b0:95:43:a5:42:c1:6d:fa:34:
         a3:03:ca:be:bf:a1:61:2c:c2:d3:b3:a6:46:bb:e5:c0:73:98:
         ea:54:ad:cf:3b:b9:36:4a:b4:a4:62:00:34:1b:4e:f6:3c:ab:
         31:b9:15:eb:c8:86:12:7f:cc:c5:1f:f3:21:3b:b5:0e:8f:43:
         82:dc:a1:8f:e7:ea:f2:f4:d1:f8:8d:3a:a0:a6:84:77:ea:f7:
         b9:58:f7:7e:65:05:71:cb:da:c4:2f:9d:9d:62:99:18:d6:79:
         16:09:7d:48:5f:2b:a3:e1:38:86:a1:ce:7a:02:79:96:e3:6c:
         6b:e0:c7:50:e6:e8:53:84:3b:a5:d5:ff:37:38:08:98:d1:b9:
         55:89:c6:8c:c7:a5:48:3a:de:86:31:79:2b:16:ba:7f:9b:1e:
         06:57:b9:1f:0d:48:92:04:b9:94:b1:36:65:21:19:e7:cb:d3:
         74:51:a4:ce:7a:8f:02:79:c6:d5:9a:da:4e:fc:fe:d3:1b:a0:
         19:db:8f:96:a2:af:09:7b:b0:16:cb:78:74:61:a5:89:e9:e4:
         2b:66:88:3e:70:9b:da:60:f4:bc:f2:63:9b:7e:b8:fb:8c:1a:
         3c:86:02:fd:18:92:c6:ad:a9:ee:54:bd:2e:b1:69:fc:7f:71:
         55:82:13:0a:1a:20:5b:bd:66:13:22:c1:d2:37:5b:6a:79:3a:
         4c:86:32:01:12:3f:82:72:fb:a5:22:5f:05:2f:1b:ff:39:bd:
         d6:b2:d8:dd:90:19:8b:52:b4:44:72:80:c0:3c:ff:d7:cf:9c:
         03:6c:e2:c1:56:0e:57:87:3b:36:16:00:ae:8c:c2:25:08:bd:
         97:a4:f6:61:5b:28:30:e6:91:db:8c:a8:e8:d8:a4:26:8c:59:
         c9:38:69:76:f5:31:2a:95:d7:d5:a3:9b:19:36:f7:1d:75:68:
         18:38:81:4c:16:53:2c:f1:97:82:2e:dc:d4:8e:d0:87:83:c0:
         7c:76:09:f4:f5:c5:1e:1f:04:4e:6d:1c:74:c2:9f:74:fe:c9:
         45:d7:e7:ae:9b:67:65:d2:57:c7:eb:b4:f9:44:f8:23:09:a3:
         5c:88:41:36:4b:a4:69:c8:01:5b:da:f1:a5:8d:87:6e:c1:79:
         5d:54:af:e0:48:99:66:39:e0:2f:70:6c:71:28:6b:bc:92:0c:
         8b:69:8e:34:29:d4:af:46:45:3c:8a:0e:c0:19:96:de:7e:7e:
         e2:bd:b7:a6:5e:e2:01:a0
-----BEGIN CERTIFICATE-----
MIIG/jCCBOagAwIBAgICEAAwDQYJKoZIhvcNAQEEBQAwgbgxCzAJBgNVBAYTAlVT
MQ0wCwYDVQQIDARVdGFoMRcwFQYDVQQHDA5TYWx0IExha2UgQ2l0eTEbMBkGA1UE
CgwSVW5pdmVyc2l0eSBvZiBVdGFoMRkwFwYDVQQLDBBDb21wdXRlciBTY2llbmNl
MR4wHAYDVQQDDBVDZXJ0aWZpY2F0ZSBBdXRob3JpdHkxKTAnBgkqhkiG9w0BCQEW
Gm1hdHRoZXcud2VzdG92ZXJAZ21haWwuY29tMB4XDTIwMDMxNzIyMjU0MloXDTIx
MDMxNzIyMjU0MlowgZAxCzAJBgNVBAYTAlVTMQ0wCwYDVQQIDARVdGFoMRswGQYD
VQQKDBJVbml2ZXJzaXR5IG9mIFV0YWgxGTAXBgNVBAsMEENvbXB1dGVyIFNjaWVu
Y2UxDzANBgNVBAMMBnNlcnZlcjEpMCcGCSqGSIb3DQEJARYabWF0dGhldy53ZXN0
b3ZlckBnbWFpbC5jb20wggIiMA0GCSqGSIb3DQEBAQUAA4ICDwAwggIKAoICAQDg
ERlKzF/9Ogrb7g2QME8iTjgkYUmR7TiFcm/ByqIgvj++r/7SwRm3YuLyYBkgqo0e
gjXiDzb52onEIojc/9nLl72F1pYyQgY4YsUcEWwLuk7zLU0FaQH/ljlk3uUsz9In
LhbfxzLmYLB2EveFjN24kNEEqbJb+JWqKS6WmwZnwDV+yoB3ZEQ2pq11byt+XBZy
Bxt4fok2BFKlNXRmrSIbnjMDMrNRX2hChvpl36HwJ/Ff9wTaUn3bR06PMvLg4/Mk
WQsHHQa7JxTXf9jHsZsCWiaAYljU0lSn5JyOQfSLIVo8p9MYQXXInFfvMsoIgyEi
5LFbhOodOJTP4Ti2NFHKKl1jXDTPUG4V5f0mD330qI8SJS9jedYEW3dpHbJ7OTD/
3W7DoA15Q3MfwhRUaLxeDhUi9y2RIWcpOfONCv68n3B9ks81WLFhKgzmCHfCfR1+
fRBmmc3yL05sgyR5X7ZdTZh1S1pA0sk8QhOuNlFsw/VC1RD+reETZ4W8/lDbIjqI
1OD/gy8erC/5uZeacTy7eTdY0D6l5Fz/Qyw7ZMkLKGxjoNlHnsqDpiMxVXvA7IS3
ufYNloplfBkEncLI6CBi7KQxjib19h3FJ33k4c1UY6tNOYPsA2bJbvmuxN4F8bK7
NmP8D4qqiEubMZKGsVau/d15oEvW9uSNay0W8C9yHQIDAQABo4IBNjCCATIwCQYD
VR0TBAIwADAsBglghkgBhvhCAQ0EHxYdT3BlblNTTCBHZW5lcmF0ZWQgQ2VydGlm
aWNhdGUwHQYDVR0OBBYEFMH9XzqJfwNr12j5UbkPbHG1gHkBMIHXBgNVHSMEgc8w
gcyhgb6kgbswgbgxCzAJBgNVBAYTAlVTMQ0wCwYDVQQIDARVdGFoMRcwFQYDVQQH
DA5TYWx0IExha2UgQ2l0eTEbMBkGA1UECgwSVW5pdmVyc2l0eSBvZiBVdGFoMRkw
FwYDVQQLDBBDb21wdXRlciBTY2llbmNlMR4wHAYDVQQDDBVDZXJ0aWZpY2F0ZSBB
dXRob3JpdHkxKTAnBgkqhkiG9w0BCQEWGm1hdHRoZXcud2VzdG92ZXJAZ21haWwu
Y29tggkAj2f0ZqsHb2owDQYJKoZIhvcNAQEEBQADggIBAD9krCKknE+cPpTLsV75
66x0BjWvofcPEeeeIHk4CbxaQ0+UZkrJzj/0flQk/LCVQ6VCwW36NKMDyr6/oWEs
wtOzpka75cBzmOpUrc87uTZKtKRiADQbTvY8qzG5FevIhhJ/zMUf8yE7tQ6PQ4Lc
oY/n6vL00fiNOqCmhHfq97lY935lBXHL2sQvnZ1imRjWeRYJfUhfK6PhOIahznoC
eZbjbGvgx1Dm6FOEO6XV/zc4CJjRuVWJxozHpUg63oYxeSsWun+bHgZXuR8NSJIE
uZSxNmUhGefL03RRpM56jwJ5xtWa2k78/tMboBnbj5airwl7sBbLeHRhpYnp5Ctm
iD5wm9pg9LzyY5t+uPuMGjyGAv0Yksatqe5UvS6xafx/cVWCEwoaIFu9ZhMiwdI3
W2p5OkyGMgESP4Jy+6UiXwUvG/85vday2N2QGYtStERygMA8/9fPnANs4sFWDleH
OzYWAK6MwiUIvZek9mFbKDDmkduMqOjYpCaMWck4aXb1MSqV19Wjmxk29x11aBg4
gUwWUyzxl4Iu3NSO0IeDwHx2CfT1xR4fBE5tHHTCn3T+yUXX566bZ2XSV8frtPlE
+CMJo1yIQTZLpGnIAVva8aWNh27BeV1Ur+BImWY54C9wbHEoa7ySDItpjjQp1K9G
RTyKDsAZlt5+fuK9t6Ze4gGg
-----END CERTIFICATE-----
