Certificate:
    Data:
        Version: 3 (0x2)
        Serial Number: 4097 (0x1001)
    Signature Algorithm: md5WithRSAEncryption
        Issuer: C=US, ST=Utah, L=Salt Lake City, O=University of Utah, OU=Computer Science, CN=Certificate Authority/emailAddress=matthew.westover@gmail.com
        Validity
            Not Before: Mar 17 22:26:35 2020 GMT
            Not After : Mar 17 22:26:35 2021 GMT
        Subject: C=US, ST=Utah, O=University of Utah, OU=Computer Science, CN=client/emailAddress=matthew.westover@gmail.com
        Subject Public Key Info:
            Public Key Algorithm: rsaEncryption
                Public-Key: (4096 bit)
                Modulus:
                    00:dd:90:12:a4:3b:f9:d0:99:e8:08:96:02:b8:06:
                    dc:5d:b2:f5:d3:fa:9c:68:82:61:41:29:b9:04:5d:
                    00:2a:bf:5b:0f:6e:8b:1c:f7:01:30:f1:23:1c:4d:
                    83:ef:30:27:59:e5:13:1f:73:9c:9c:21:f8:36:3e:
                    24:21:ab:ff:07:02:b1:2c:2b:8e:18:22:fe:c1:b9:
                    bd:1d:0f:06:ed:e5:1a:85:80:96:f4:a2:a1:1f:22:
                    d3:15:93:92:2f:8b:67:3d:30:f5:20:1a:25:6b:7a:
                    28:f2:ff:6a:35:ee:71:ec:3b:63:0c:ac:45:0d:18:
                    81:b8:00:44:51:8a:a5:16:12:0a:e5:d6:0e:bb:74:
                    cc:25:09:1c:02:c8:1f:e6:9a:fe:68:33:78:ba:cf:
                    28:fe:35:ca:b5:97:17:65:05:b0:31:bf:5b:f2:86:
                    43:06:ed:50:90:00:7e:b1:80:70:84:41:4f:bd:59:
                    e8:c9:b4:8f:6b:34:6a:94:d9:2c:14:d5:fb:40:e0:
                    07:5f:97:b5:3f:7d:0d:60:c4:c2:8a:1c:e6:f8:83:
                    3f:e1:bd:13:75:43:bb:9d:1b:02:61:b4:da:b3:d2:
                    56:59:8f:c1:9d:65:69:5b:de:cc:c6:3d:ca:21:fb:
                    25:a7:57:2c:c7:7a:26:83:c4:d7:62:53:2a:9b:5f:
                    13:76:b1:bb:02:67:99:5e:6d:f2:f6:e2:1f:73:01:
                    2a:ca:f7:d7:f8:13:01:19:6b:c3:62:6b:40:7f:43:
                    e8:8d:94:1f:79:ed:32:1c:6d:02:70:e7:a6:bd:c5:
                    86:5e:a5:5e:76:cc:e7:20:29:67:b6:f9:15:f0:96:
                    09:0a:3a:12:92:51:2e:d9:ae:8d:c2:55:d6:7b:bb:
                    b6:c9:1d:0a:c3:8f:85:dc:9f:ed:bf:2e:a6:6b:dd:
                    9f:50:55:29:37:9b:26:cd:ff:44:39:a9:a5:42:e5:
                    23:3a:5a:86:4d:04:56:af:e0:48:6e:26:78:8d:61:
                    87:a9:ca:da:b4:aa:9c:e2:44:80:c4:d0:17:d3:df:
                    34:6b:94:aa:04:6c:ab:1f:d5:1a:e6:47:5b:69:c0:
                    26:25:37:2f:92:a0:28:26:99:a6:ae:63:01:ca:1a:
                    bd:2f:b5:e0:90:82:73:d1:ec:ac:87:32:7c:1c:50:
                    27:95:8a:e5:05:68:35:d9:b2:e4:7b:f6:62:9e:a9:
                    a0:a8:2b:85:5b:e9:3b:69:83:10:cc:16:1c:fc:1e:
                    3a:d5:f5:46:d1:b0:89:71:f0:6a:46:27:d9:a5:22:
                    09:44:97:fd:88:10:fc:90:fe:0f:53:30:4f:f8:d4:
                    de:fc:b8:26:aa:6e:82:5e:a1:2a:72:42:68:8c:77:
                    40:76:17
                Exponent: 65537 (0x10001)
        X509v3 extensions:
            X509v3 Basic Constraints: 
                CA:FALSE
            Netscape Comment: 
                OpenSSL Generated Certificate
            X509v3 Subject Key Identifier: 
                F7:86:83:EE:19:E3:6B:BA:90:CA:75:2A:35:7E:5F:9A:4B:24:0D:ED
            X509v3 Authority Key Identifier: 
                DirName:/C=US/ST=Utah/L=Salt Lake City/O=University of Utah/OU=Computer Science/CN=Certificate Authority/emailAddress=matthew.westover@gmail.com
                serial:8F:67:F4:66:AB:07:6F:6A

    Signature Algorithm: md5WithRSAEncryption
         15:80:8d:ec:d0:d8:0d:f7:07:cd:6d:51:62:fc:e6:77:4c:99:
         8e:f4:96:6f:82:bd:85:96:aa:7c:aa:a5:7a:88:d5:e0:ab:72:
         f5:2a:4c:86:1c:42:67:32:c4:bf:5b:08:0f:db:29:40:1b:02:
         f5:40:87:fc:75:6c:5d:b8:fd:11:83:fe:dc:48:62:02:19:01:
         e9:5b:2c:ae:4f:27:d1:9d:2d:1f:e4:31:d2:85:3c:27:18:bc:
         66:3f:66:cb:7a:0a:cc:12:53:7b:b0:fd:72:38:9e:64:ed:dc:
         7a:d4:fe:2b:a9:22:ba:f5:90:11:40:6b:c4:17:17:4d:8f:3b:
         12:a8:f2:bc:fd:0d:d5:a5:a3:b5:21:21:11:81:01:d2:1f:a5:
         e9:8c:85:0e:e3:0b:58:d4:3d:fd:34:90:0f:60:a2:9e:3b:08:
         a1:60:bf:2f:6a:57:4b:ba:af:c3:7c:97:41:d0:aa:29:a3:51:
         14:4c:53:5e:50:8e:1a:aa:c4:89:29:fe:c5:13:aa:1e:f8:59:
         1b:7d:a5:1d:2a:8e:64:e9:88:22:6b:1f:8e:78:7e:5a:13:bc:
         c1:ca:96:46:20:7b:15:65:90:3d:49:3b:db:67:53:c8:cb:59:
         1f:62:1d:46:a3:52:2a:0d:d7:b8:ab:98:8e:69:8e:c6:af:ec:
         75:bd:1b:56:27:2d:bc:a4:1f:64:29:ee:84:f6:8f:fc:2e:d4:
         28:ee:b2:3b:f8:e9:1d:11:16:96:2f:63:df:a9:ca:d9:2d:3e:
         c9:16:82:3d:53:60:d2:16:0f:40:46:f7:79:45:7d:04:73:08:
         96:1f:52:44:11:48:d9:22:85:f6:04:19:5b:10:e4:6b:d4:01:
         77:2c:ff:8c:0f:95:5e:3d:30:fb:f4:6a:95:02:97:a4:ce:a0:
         df:6d:dc:45:9e:1d:66:f2:21:d9:3e:1c:f1:86:1d:fb:2d:06:
         d7:55:f5:02:79:a3:02:e1:80:da:b9:57:56:f0:e2:a8:82:24:
         07:97:0d:8b:4c:54:2a:0a:8b:86:30:d8:1d:e3:87:64:c9:48:
         08:c0:9a:96:32:25:a5:d0:01:6c:c1:0f:90:ed:14:7e:a5:58:
         07:57:ee:d7:b7:79:23:a9:62:34:93:ac:56:1e:48:85:e9:20:
         f5:e2:d7:60:73:74:e9:1e:25:a9:8a:4f:e2:09:84:66:d8:d0:
         2d:41:92:80:3a:e0:ee:f8:90:60:ca:fb:25:df:55:85:a2:74:
         04:de:a6:5d:cb:9d:75:35:3a:31:ef:a9:d5:5a:d1:44:0d:f7:
         67:98:91:d9:74:70:6a:4c:d4:23:59:f6:73:d1:5d:76:39:a0:
         fe:68:fc:6d:7a:09:4a:1c
-----BEGIN CERTIFICATE-----
MIIG/jCCBOagAwIBAgICEAEwDQYJKoZIhvcNAQEEBQAwgbgxCzAJBgNVBAYTAlVT
MQ0wCwYDVQQIDARVdGFoMRcwFQYDVQQHDA5TYWx0IExha2UgQ2l0eTEbMBkGA1UE
CgwSVW5pdmVyc2l0eSBvZiBVdGFoMRkwFwYDVQQLDBBDb21wdXRlciBTY2llbmNl
MR4wHAYDVQQDDBVDZXJ0aWZpY2F0ZSBBdXRob3JpdHkxKTAnBgkqhkiG9w0BCQEW
Gm1hdHRoZXcud2VzdG92ZXJAZ21haWwuY29tMB4XDTIwMDMxNzIyMjYzNVoXDTIx
MDMxNzIyMjYzNVowgZAxCzAJBgNVBAYTAlVTMQ0wCwYDVQQIDARVdGFoMRswGQYD
VQQKDBJVbml2ZXJzaXR5IG9mIFV0YWgxGTAXBgNVBAsMEENvbXB1dGVyIFNjaWVu
Y2UxDzANBgNVBAMMBmNsaWVudDEpMCcGCSqGSIb3DQEJARYabWF0dGhldy53ZXN0
b3ZlckBnbWFpbC5jb20wggIiMA0GCSqGSIb3DQEBAQUAA4ICDwAwggIKAoICAQDd
kBKkO/nQmegIlgK4BtxdsvXT+pxogmFBKbkEXQAqv1sPbosc9wEw8SMcTYPvMCdZ
5RMfc5ycIfg2PiQhq/8HArEsK44YIv7Bub0dDwbt5RqFgJb0oqEfItMVk5Ivi2c9
MPUgGiVreijy/2o17nHsO2MMrEUNGIG4AERRiqUWEgrl1g67dMwlCRwCyB/mmv5o
M3i6zyj+Ncq1lxdlBbAxv1vyhkMG7VCQAH6xgHCEQU+9WejJtI9rNGqU2SwU1ftA
4Adfl7U/fQ1gxMKKHOb4gz/hvRN1Q7udGwJhtNqz0lZZj8GdZWlb3szGPcoh+yWn
VyzHeiaDxNdiUyqbXxN2sbsCZ5lebfL24h9zASrK99f4EwEZa8Nia0B/Q+iNlB95
7TIcbQJw56a9xYZepV52zOcgKWe2+RXwlgkKOhKSUS7Zro3CVdZ7u7bJHQrDj4Xc
n+2/LqZr3Z9QVSk3mybN/0Q5qaVC5SM6WoZNBFav4EhuJniNYYepytq0qpziRIDE
0BfT3zRrlKoEbKsf1RrmR1tpwCYlNy+SoCgmmaauYwHKGr0vteCQgnPR7KyHMnwc
UCeViuUFaDXZsuR79mKeqaCoK4Vb6TtpgxDMFhz8HjrV9UbRsIlx8GpGJ9mlIglE
l/2IEPyQ/g9TME/41N78uCaqboJeoSpyQmiMd0B2FwIDAQABo4IBNjCCATIwCQYD
VR0TBAIwADAsBglghkgBhvhCAQ0EHxYdT3BlblNTTCBHZW5lcmF0ZWQgQ2VydGlm
aWNhdGUwHQYDVR0OBBYEFPeGg+4Z42u6kMp1KjV+X5pLJA3tMIHXBgNVHSMEgc8w
gcyhgb6kgbswgbgxCzAJBgNVBAYTAlVTMQ0wCwYDVQQIDARVdGFoMRcwFQYDVQQH
DA5TYWx0IExha2UgQ2l0eTEbMBkGA1UECgwSVW5pdmVyc2l0eSBvZiBVdGFoMRkw
FwYDVQQLDBBDb21wdXRlciBTY2llbmNlMR4wHAYDVQQDDBVDZXJ0aWZpY2F0ZSBB
dXRob3JpdHkxKTAnBgkqhkiG9w0BCQEWGm1hdHRoZXcud2VzdG92ZXJAZ21haWwu
Y29tggkAj2f0ZqsHb2owDQYJKoZIhvcNAQEEBQADggIBABWAjezQ2A33B81tUWL8
5ndMmY70lm+CvYWWqnyqpXqI1eCrcvUqTIYcQmcyxL9bCA/bKUAbAvVAh/x1bF24
/RGD/txIYgIZAelbLK5PJ9GdLR/kMdKFPCcYvGY/Zst6CswSU3uw/XI4nmTt3HrU
/iupIrr1kBFAa8QXF02POxKo8rz9DdWlo7UhIRGBAdIfpemMhQ7jC1jUPf00kA9g
op47CKFgvy9qV0u6r8N8l0HQqimjURRMU15QjhqqxIkp/sUTqh74WRt9pR0qjmTp
iCJrH454floTvMHKlkYgexVlkD1JO9tnU8jLWR9iHUajUioN17irmI5pjsav7HW9
G1YnLbykH2Qp7oT2j/wu1Cjusjv46R0RFpYvY9+pytktPskWgj1TYNIWD0BG93lF
fQRzCJYfUkQRSNkihfYEGVsQ5GvUAXcs/4wPlV49MPv0apUCl6TOoN9t3EWeHWby
Idk+HPGGHfstBtdV9QJ5owLhgNq5V1bw4qiCJAeXDYtMVCoKi4Yw2B3jh2TJSAjA
mpYyJaXQAWzBD5DtFH6lWAdX7te3eSOpYjSTrFYeSIXpIPXi12BzdOkeJamKT+IJ
hGbY0C1BkoA64O74kGDK+yXfVYWidATepl3LnXU1OjHvqdVa0UQN92eYkdl0cGpM
1CNZ9nPRXXY5oP5o/G16CUoc
-----END CERTIFICATE-----
